target datalayout = "e-m:e-p270:32:32-p271:32:32-p272:64:64-i64:64-i128:128-f80:128-n8:16:32:64-S128"
target triple = "x86_64-pc-linux-gnu"

%struct._generic_SUNNonlinearSolver = type { ptr, ptr, ptr }
%struct._SUNNonlinearSolverContent_FixedPoint = type { ptr, ptr, i32, ptr, i32, double, ptr, ptr, ptr, ptr, ptr, ptr, ptr, ptr, ptr, ptr, ptr, ptr, i32, i32, i64, i64, ptr }

; Function Attrs: nounwind uwtable
define i32 @SUNNonlinSolSetDamping_FixedPoint(ptr noundef %0, double noundef %1) #0 {
  %3 = alloca ptr, align 8
  %4 = alloca double, align 8
  %5 = alloca ptr, align 8
  store ptr %0, ptr %3, align 8, !tbaa !12
  store double %1, ptr %4, align 8, !tbaa !48
  call void @llvm.lifetime.start.p0(i64 8, ptr %5) #7
  %6 = load ptr, ptr %3, align 8, !tbaa !12
  %7 = getelementptr inbounds nuw %struct._generic_SUNNonlinearSolver, ptr %6, i32 0, i32 2
  %8 = load ptr, ptr %7, align 8, !tbaa !47
  store ptr %8, ptr %5, align 8, !tbaa !10
  %9 = load double, ptr %4, align 8, !tbaa !48
  %10 = fcmp olt double %9, 1.000000e+00
  br i1 %10, label %11, label %21

11:                                               ; preds = %2
  %12 = load double, ptr %4, align 8, !tbaa !48
  %13 = load ptr, ptr %3, align 8, !tbaa !12
  %14 = getelementptr inbounds nuw %struct._generic_SUNNonlinearSolver, ptr %13, i32 0, i32 0
  %15 = load ptr, ptr %14, align 8, !tbaa !30
  %16 = getelementptr inbounds nuw %struct._SUNNonlinearSolverContent_FixedPoint, ptr %15, i32 0, i32 5
  store double %12, ptr %16, align 8, !tbaa !41
  %17 = load ptr, ptr %3, align 8, !tbaa !12
  %18 = getelementptr inbounds nuw %struct._generic_SUNNonlinearSolver, ptr %17, i32 0, i32 0
  %19 = load ptr, ptr %18, align 8, !tbaa !30
  %20 = getelementptr inbounds nuw %struct._SUNNonlinearSolverContent_FixedPoint, ptr %19, i32 0, i32 4
  store i32 1, ptr %20, align 8, !tbaa !40
  br label %30

21:                                               ; preds = %2
  %22 = load ptr, ptr %3, align 8, !tbaa !12
  %23 = getelementptr inbounds nuw %struct._generic_SUNNonlinearSolver, ptr %22, i32 0, i32 0
  %24 = load ptr, ptr %23, align 8, !tbaa !30
  %25 = getelementptr inbounds nuw %struct._SUNNonlinearSolverContent_FixedPoint, ptr %24, i32 0, i32 5
  store double 1.000000e+00, ptr %25, align 8, !tbaa !41
  %26 = load ptr, ptr %3, align 8, !tbaa !12
  %27 = getelementptr inbounds nuw %struct._generic_SUNNonlinearSolver, ptr %26, i32 0, i32 0
  %28 = load ptr, ptr %27, align 8, !tbaa !30
  %29 = getelementptr inbounds nuw %struct._SUNNonlinearSolverContent_FixedPoint, ptr %28, i32 0, i32 4
  store i32 0, ptr %29, align 8, !tbaa !40
  br label %30

30:                                               ; preds = %21, %11
  call void @llvm.lifetime.end.p0(i64 8, ptr %5) #7
  ret i32 0
}