; Function Attrs: mustprogress nofree norecurse nosync nounwind willreturn memory(write, argmem: readwrite, inaccessiblemem: none) uwtable
define noundef i32 @SUNNonlinSolSetDamping_FixedPoint(ptr noundef readonly captures(none) %0, double noundef %1) local_unnamed_addr #3 {
  %3 = fcmp olt double %1, 1.000000e+00
  %4 = load ptr, ptr %0, align 8, !tbaa !21
  %5 = getelementptr inbounds nuw i8, ptr %4, i64 40
  %6 = getelementptr inbounds nuw i8, ptr %4, i64 32
  %. = select i1 %3, double %1, double 1.000000e+00
  %.8 = zext i1 %3 to i32
  store double %., ptr %5, align 8, !tbaa !31
  store i32 %.8, ptr %6, align 8, !tbaa !48
  ret i32 0
}